; Function Attrs: mustprogress uwtable
define hidden void @_ZN4cvc58internal3smt29DifficultyPostprocessCallbackC2Ev(ptr noundef nonnull align 8 dereferenceable(64) %this) unnamed_addr #3 align 2 personality ptr @__gxx_personality_v0 {
entry:
  tail call void @_ZN4cvc58internal24ProofNodeUpdaterCallbackC2Ev(ptr noundef nonnull align 8 dereferenceable(8) %this)
  store ptr getelementptr inbounds ({ [8 x ptr] }, ptr @_ZTVN4cvc58internal3smt29DifficultyPostprocessCallbackE, i64 0, i32 0, i64 2), ptr %this, align 8
  %d_currDifficulty = getelementptr inbounds i8, ptr %this, i64 8
  store i64 0, ptr %d_currDifficulty, align 8
  %0 = getelementptr inbounds i8, ptr %this, i64 24
  store i32 0, ptr %0, align 8
  %_M_parent.i.i.i.i.i = getelementptr inbounds i8, ptr %this, i64 32
  store ptr null, ptr %_M_parent.i.i.i.i.i, align 8
  %_M_left.i.i.i.i.i = getelementptr inbounds i8, ptr %this, i64 40
  store ptr %0, ptr %_M_left.i.i.i.i.i, align 8
  %_M_right.i.i.i.i.i = getelementptr inbounds i8, ptr %this, i64 48
  store ptr %0, ptr %_M_right.i.i.i.i.i, align 8
  %_M_node_count.i.i.i.i.i = getelementptr inbounds i8, ptr %this, i64 56
  store i64 0, ptr %_M_node_count.i.i.i.i.i, align 8
  ret void
}